; Function Attrs: nounwind uwtable
define hidden ptr @BIO_ptr_ctrl(ptr noundef %0, i32 noundef %1, i64 noundef %2) local_unnamed_addr #0 {
  %4 = alloca ptr, align 8
  call void @llvm.lifetime.start.p0(i64 8, ptr nonnull %4) #18
  store ptr null, ptr %4, align 8, !tbaa !29
  %5 = icmp eq ptr %0, null
  br i1 %5, label %BIO_ctrl.exit.thread, label %6

6:                                                ; preds = %3
  %7 = load ptr, ptr %0, align 8, !tbaa !6
  %8 = icmp eq ptr %7, null
  br i1 %8, label %13, label %9

9:                                                ; preds = %6
  %10 = getelementptr inbounds nuw i8, ptr %7, i64 48
  %11 = load ptr, ptr %10, align 8, !tbaa !28
  %12 = icmp eq ptr %11, null
  br i1 %12, label %13, label %14

13:                                               ; preds = %9, %6
  tail call void @ERR_put_error(i32 noundef 17, i32 noundef 0, i32 noundef 115, ptr noundef nonnull @.str, i32 noundef 220) #18
  br label %BIO_ctrl.exit.thread

14:                                               ; preds = %9
  %15 = getelementptr inbounds nuw i8, ptr %0, i64 8
  %16 = load ptr, ptr %15, align 8, !tbaa !20
  %.not.i = icmp eq ptr %16, null
  br i1 %.not.i, label %20, label %17

17:                                               ; preds = %14
  %18 = call i64 %16(ptr noundef nonnull %0, i32 noundef 6, ptr noundef nonnull %4, i32 noundef %1, i64 noundef %2, i64 noundef 1) #18
  %19 = icmp slt i64 %18, 1
  br i1 %19, label %BIO_ctrl.exit.thread, label %._crit_edge.i

._crit_edge.i:                                    ; preds = %17
  %.pre.i = load ptr, ptr %0, align 8, !tbaa !6
  %.phi.trans.insert.i = getelementptr inbounds nuw i8, ptr %.pre.i, i64 48
  %.pre31.i = load ptr, ptr %.phi.trans.insert.i, align 8, !tbaa !28
  br label %20

20:                                               ; preds = %._crit_edge.i, %14
  %21 = phi ptr [ %.pre31.i, %._crit_edge.i ], [ %11, %14 ]
  %22 = call i64 %21(ptr noundef nonnull %0, i32 noundef %1, i64 noundef %2, ptr noundef nonnull %4) #18
  %23 = load ptr, ptr %15, align 8, !tbaa !20
  %.not30.i = icmp eq ptr %23, null
  br i1 %.not30.i, label %BIO_ctrl.exit, label %24

24:                                               ; preds = %20
  %25 = call i64 %23(ptr noundef nonnull %0, i32 noundef 134, ptr noundef nonnull %4, i32 noundef %1, i64 noundef %2, i64 noundef %22) #18
  br label %BIO_ctrl.exit

BIO_ctrl.exit:                                    ; preds = %20, %24
  %.024.i = phi i64 [ %25, %24 ], [ %22, %20 ]
  %.024.i.fr = freeze i64 %.024.i
  %26 = icmp slt i64 %.024.i.fr, 1
  %27 = load ptr, ptr %4, align 8
  br i1 %26, label %BIO_ctrl.exit.thread, label %28

BIO_ctrl.exit.thread:                             ; preds = %17, %3, %13, %BIO_ctrl.exit
  br label %28

28:                                               ; preds = %BIO_ctrl.exit, %BIO_ctrl.exit.thread
  %29 = phi ptr [ null, %BIO_ctrl.exit.thread ], [ %27, %BIO_ctrl.exit ]
  call void @llvm.lifetime.end.p0(i64 8, ptr nonnull %4) #18
  ret ptr %29
}